target datalayout = "e-m:e-p270:32:32-p271:32:32-p272:64:64-i64:64-f80:128-n8:16:32:64-S128"
target triple = "x86_64-pc-linux-gnu"

%struct.book = type { i32, [100 x i8] }

@.str = private unnamed_addr constant [3 x i8] c"%d\00", align 1
@.str.1 = private unnamed_addr constant [3 x i8] c"%s\00", align 1
@.str.2 = private unnamed_addr constant [4 x i8] c"%c\0A\00", align 1
@.str.3 = private unnamed_addr constant [4 x i8] c"%d\0A\00", align 1

; Function Attrs: noinline nounwind uwtable
define dso_local void @main() #0 {
  %1 = alloca i32, align 4
  %2 = alloca i32, align 4
  %3 = alloca i32, align 4
  %4 = alloca [26 x i32], align 16
  %5 = alloca [100 x i32], align 16
  %6 = alloca i32, align 4
  %7 = alloca i32, align 4
  %8 = alloca [100 x i32], align 16
  %9 = alloca i32, align 4
  %10 = alloca [100 x %struct.book], align 16
  store i32 0, i32* %2, align 4
  br label %11

11:                                               ; preds = %18, %0
  %12 = load i32, i32* %2, align 4
  %13 = icmp slt i32 %12, 26
  br i1 %13, label %14, label %21

14:                                               ; preds = %11
  %15 = load i32, i32* %2, align 4
  %16 = sext i32 %15 to i64
  %17 = getelementptr inbounds [26 x i32], [26 x i32]* %4, i64 0, i64 %16
  store i32 0, i32* %17, align 4
  br label %18

18:                                               ; preds = %14
  %19 = load i32, i32* %2, align 4
  %20 = add nsw i32 %19, 1
  store i32 %20, i32* %2, align 4
  br label %11

21:                                               ; preds = %11
  %22 = call i32 (i8*, ...) @__isoc99_scanf(i8* getelementptr inbounds ([3 x i8], [3 x i8]* @.str, i64 0, i64 0), i32* %1)
  store i32 0, i32* %2, align 4
  br label %23

23:                                               ; preds = %39, %21
  %24 = load i32, i32* %2, align 4
  %25 = load i32, i32* %1, align 4
  %26 = icmp slt i32 %24, %25
  br i1 %26, label %27, label %42

27:                                               ; preds = %23
  %28 = load i32, i32* %2, align 4
  %29 = sext i32 %28 to i64
  %30 = getelementptr inbounds [100 x %struct.book], [100 x %struct.book]* %10, i64 0, i64 %29
  %31 = getelementptr inbounds %struct.book, %struct.book* %30, i32 0, i32 0
  %32 = call i32 (i8*, ...) @__isoc99_scanf(i8* getelementptr inbounds ([3 x i8], [3 x i8]* @.str, i64 0, i64 0), i32* %31)
  %33 = load i32, i32* %2, align 4
  %34 = sext i32 %33 to i64
  %35 = getelementptr inbounds [100 x %struct.book], [100 x %struct.book]* %10, i64 0, i64 %34
  %36 = getelementptr inbounds %struct.book, %struct.book* %35, i32 0, i32 1
  %37 = getelementptr inbounds [100 x i8], [100 x i8]* %36, i64 0, i64 0
  %38 = call i32 (i8*, ...) @__isoc99_scanf(i8* getelementptr inbounds ([3 x i8], [3 x i8]* @.str.1, i64 0, i64 0), i8* %37)
  br label %39

39:                                               ; preds = %27
  %40 = load i32, i32* %2, align 4
  %41 = add nsw i32 %40, 1
  store i32 %41, i32* %2, align 4
  br label %23

42:                                               ; preds = %23
  store i32 0, i32* %2, align 4
  br label %43

43:                                               ; preds = %85, %42
  %44 = load i32, i32* %2, align 4
  %45 = load i32, i32* %1, align 4
  %46 = icmp slt i32 %44, %45
  br i1 %46, label %47, label %88

47:                                               ; preds = %43
  %48 = load i32, i32* %2, align 4
  %49 = sext i32 %48 to i64
  %50 = getelementptr inbounds [100 x %struct.book], [100 x %struct.book]* %10, i64 0, i64 %49
  %51 = getelementptr inbounds %struct.book, %struct.book* %50, i32 0, i32 1
  %52 = getelementptr inbounds [100 x i8], [100 x i8]* %51, i64 0, i64 0
  %53 = call i64 @strlen(i8* %52) #3
  %54 = trunc i64 %53 to i32
  %55 = load i32, i32* %2, align 4
  %56 = sext i32 %55 to i64
  %57 = getelementptr inbounds [100 x i32], [100 x i32]* %5, i64 0, i64 %56
  store i32 %54, i32* %57, align 4
  store i32 0, i32* %3, align 4
  br label %58

58:                                               ; preds = %81, %47
  %59 = load i32, i32* %3, align 4
  %60 = load i32, i32* %2, align 4
  %61 = sext i32 %60 to i64
  %62 = getelementptr inbounds [100 x i32], [100 x i32]* %5, i64 0, i64 %61
  %63 = load i32, i32* %62, align 4
  %64 = icmp slt i32 %59, %63
  br i1 %64, label %65, label %84

65:                                               ; preds = %58
  %66 = load i32, i32* %2, align 4
  %67 = sext i32 %66 to i64
  %68 = getelementptr inbounds [100 x %struct.book], [100 x %struct.book]* %10, i64 0, i64 %67
  %69 = getelementptr inbounds %struct.book, %struct.book* %68, i32 0, i32 1
  %70 = load i32, i32* %3, align 4
  %71 = sext i32 %70 to i64
  %72 = getelementptr inbounds [100 x i8], [100 x i8]* %69, i64 0, i64 %71
  %73 = load i8, i8* %72, align 1
  %74 = sext i8 %73 to i32
  %75 = sub nsw i32 %74, 65
  store i32 %75, i32* %6, align 4
  %76 = load i32, i32* %6, align 4
  %77 = sext i32 %76 to i64
  %78 = getelementptr inbounds [26 x i32], [26 x i32]* %4, i64 0, i64 %77
  %79 = load i32, i32* %78, align 4
  %80 = add nsw i32 %79, 1
  store i32 %80, i32* %78, align 4
  br label %81

81:                                               ; preds = %65
  %82 = load i32, i32* %3, align 4
  %83 = add nsw i32 %82, 1
  store i32 %83, i32* %3, align 4
  br label %58

84:                                               ; preds = %58
  br label %85

85:                                               ; preds = %84
  %86 = load i32, i32* %2, align 4
  %87 = add nsw i32 %86, 1
  store i32 %87, i32* %2, align 4
  br label %43

88:                                               ; preds = %43
  %89 = getelementptr inbounds [26 x i32], [26 x i32]* %4, i64 0, i64 0
  %90 = load i32, i32* %89, align 16
  store i32 %90, i32* %7, align 4
  store i32 0, i32* %3, align 4
  store i32 1, i32* %2, align 4
  br label %91

91:                                               ; preds = %108, %88
  %92 = load i32, i32* %2, align 4
  %93 = icmp slt i32 %92, 26
  br i1 %93, label %94, label %111

94:                                               ; preds = %91
  %95 = load i32, i32* %2, align 4
  %96 = sext i32 %95 to i64
  %97 = getelementptr inbounds [26 x i32], [26 x i32]* %4, i64 0, i64 %96
  %98 = load i32, i32* %97, align 4
  %99 = load i32, i32* %7, align 4
  %100 = icmp sgt i32 %98, %99
  br i1 %100, label %101, label %107

101:                                              ; preds = %94
  %102 = load i32, i32* %2, align 4
  store i32 %102, i32* %3, align 4
  %103 = load i32, i32* %2, align 4
  %104 = sext i32 %103 to i64
  %105 = getelementptr inbounds [26 x i32], [26 x i32]* %4, i64 0, i64 %104
  %106 = load i32, i32* %105, align 4
  store i32 %106, i32* %7, align 4
  br label %107

107:                                              ; preds = %101, %94
  br label %108

108:                                              ; preds = %107
  %109 = load i32, i32* %2, align 4
  %110 = add nsw i32 %109, 1
  store i32 %110, i32* %2, align 4
  br label %91

111:                                              ; preds = %91
  %112 = load i32, i32* %3, align 4
  store i32 %112, i32* %9, align 4
  %113 = load i32, i32* %3, align 4
  %114 = add nsw i32 65, %113
  %115 = call i32 (i8*, ...) @printf(i8* getelementptr inbounds ([4 x i8], [4 x i8]* @.str.2, i64 0, i64 0), i32 %114)
  %116 = load i32, i32* %7, align 4
  %117 = call i32 (i8*, ...) @printf(i8* getelementptr inbounds ([4 x i8], [4 x i8]* @.str.3, i64 0, i64 0), i32 %116)
  store i32 0, i32* %2, align 4
  br label %118

118:                                              ; preds = %168, %111
  %119 = load i32, i32* %2, align 4
  %120 = load i32, i32* %1, align 4
  %121 = icmp slt i32 %119, %120
  br i1 %121, label %122, label %171

122:                                              ; preds = %118
  %123 = load i32, i32* %2, align 4
  %124 = sext i32 %123 to i64
  %125 = getelementptr inbounds [100 x i32], [100 x i32]* %8, i64 0, i64 %124
  store i32 0, i32* %125, align 4
  store i32 0, i32* %3, align 4
  br label %126

126:                                              ; preds = %151, %122
  %127 = load i32, i32* %3, align 4
  %128 = load i32, i32* %2, align 4
  %129 = sext i32 %128 to i64
  %130 = getelementptr inbounds [100 x i32], [100 x i32]* %5, i64 0, i64 %129
  %131 = load i32, i32* %130, align 4
  %132 = icmp slt i32 %127, %131
  br i1 %132, label %133, label %154

133:                                              ; preds = %126
  %134 = load i32, i32* %2, align 4
  %135 = sext i32 %134 to i64
  %136 = getelementptr inbounds [100 x %struct.book], [100 x %struct.book]* %10, i64 0, i64 %135
  %137 = getelementptr inbounds %struct.book, %struct.book* %136, i32 0, i32 1
  %138 = load i32, i32* %3, align 4
  %139 = sext i32 %138 to i64
  %140 = getelementptr inbounds [100 x i8], [100 x i8]* %137, i64 0, i64 %139
  %141 = load i8, i8* %140, align 1
  %142 = sext i8 %141 to i32
  %143 = load i32, i32* %9, align 4
  %144 = add nsw i32 65, %143
  %145 = icmp eq i32 %142, %144
  br i1 %145, label %146, label %150

146:                                              ; preds = %133
  %147 = load i32, i32* %2, align 4
  %148 = sext i32 %147 to i64
  %149 = getelementptr inbounds [100 x i32], [100 x i32]* %8, i64 0, i64 %148
  store i32 1, i32* %149, align 4
  br label %150

150:                                              ; preds = %146, %133
  br label %151

151:                                              ; preds = %150
  %152 = load i32, i32* %3, align 4
  %153 = add nsw i32 %152, 1
  store i32 %153, i32* %3, align 4
  br label %126

154:                                              ; preds = %126
  %155 = load i32, i32* %2, align 4
  %156 = sext i32 %155 to i64
  %157 = getelementptr inbounds [100 x i32], [100 x i32]* %8, i64 0, i64 %156
  %158 = load i32, i32* %157, align 4
  %159 = icmp eq i32 %158, 1
  br i1 %159, label %160, label %167

160:                                              ; preds = %154
  %161 = load i32, i32* %2, align 4
  %162 = sext i32 %161 to i64
  %163 = getelementptr inbounds [100 x %struct.book], [100 x %struct.book]* %10, i64 0, i64 %162
  %164 = getelementptr inbounds %struct.book, %struct.book* %163, i32 0, i32 0
  %165 = load i32, i32* %164, align 8
  %166 = call i32 (i8*, ...) @printf(i8* getelementptr inbounds ([4 x i8], [4 x i8]* @.str.3, i64 0, i64 0), i32 %165)
  br label %167

167:                                              ; preds = %160, %154
  br label %168

168:                                              ; preds = %167
  %169 = load i32, i32* %2, align 4
  %170 = add nsw i32 %169, 1
  store i32 %170, i32* %2, align 4
  br label %118

171:                                              ; preds = %118
  ret void
}